; Function Attrs: nounwind uwtable
define ptr @l_UInt64_reduceMod(ptr noundef %0, ptr readnone captures(none) %1, ptr readnone captures(none) %2, ptr readnone captures(none) %3, ptr noundef %4, ptr noundef %5, ptr noundef %6, ptr noundef %7, ptr noundef %8) local_unnamed_addr #0 {
  %10 = load ptr, ptr @l___aux__Lean__Meta__Tactic__Simp__BuiltinSimprocs__UInt______macroRules__commandDeclare__uint__simprocs____1___closed__334, align 8, !tbaa !4
  %11 = tail call zeroext i8 @l_Lean_Expr_isAppOfArity(ptr noundef %0, ptr noundef %10, ptr noundef nonnull inttoptr (i64 13 to ptr)) #5
  %12 = icmp eq i8 %11, 0
  br i1 %12, label %13, label %57

13:                                               ; preds = %9
  %14 = ptrtoint ptr %7 to i64
  %15 = and i64 %14, 1
  %.not = icmp eq i64 %15, 0
  br i1 %.not, label %16, label %lean_dec.exit26

16:                                               ; preds = %13
  %17 = load i32, ptr %7, align 4, !tbaa !8
  %18 = icmp sgt i32 %17, 1
  br i1 %18, label %19, label %21, !prof !11

19:                                               ; preds = %16
  %20 = add nsw i32 %17, -1
  store i32 %20, ptr %7, align 4, !tbaa !8
  br label %lean_dec.exit26

21:                                               ; preds = %16
  %.not.i = icmp eq i32 %17, 0
  br i1 %.not.i, label %lean_dec.exit26, label %22

22:                                               ; preds = %21
  tail call void @lean_dec_ref_cold(ptr noundef nonnull %7) #5
  br label %lean_dec.exit26

lean_dec.exit26:                                  ; preds = %22, %21, %19, %13
  %23 = ptrtoint ptr %6 to i64
  %24 = and i64 %23, 1
  %.not33 = icmp eq i64 %24, 0
  br i1 %.not33, label %25, label %lean_dec.exit25

25:                                               ; preds = %lean_dec.exit26
  %26 = load i32, ptr %6, align 4, !tbaa !8
  %27 = icmp sgt i32 %26, 1
  br i1 %27, label %28, label %30, !prof !11

28:                                               ; preds = %25
  %29 = add nsw i32 %26, -1
  store i32 %29, ptr %6, align 4, !tbaa !8
  br label %lean_dec.exit25

30:                                               ; preds = %25
  %.not.i27 = icmp eq i32 %26, 0
  br i1 %.not.i27, label %lean_dec.exit25, label %31

31:                                               ; preds = %30
  tail call void @lean_dec_ref_cold(ptr noundef nonnull %6) #5
  br label %lean_dec.exit25

lean_dec.exit25:                                  ; preds = %31, %30, %28, %lean_dec.exit26
  %32 = ptrtoint ptr %5 to i64
  %33 = and i64 %32, 1
  %.not34 = icmp eq i64 %33, 0
  br i1 %.not34, label %34, label %lean_dec.exit24

34:                                               ; preds = %lean_dec.exit25
  %35 = load i32, ptr %5, align 4, !tbaa !8
  %36 = icmp sgt i32 %35, 1
  br i1 %36, label %37, label %39, !prof !11

37:                                               ; preds = %34
  %38 = add nsw i32 %35, -1
  store i32 %38, ptr %5, align 4, !tbaa !8
  br label %lean_dec.exit24

39:                                               ; preds = %34
  %.not.i29 = icmp eq i32 %35, 0
  br i1 %.not.i29, label %lean_dec.exit24, label %40

40:                                               ; preds = %39
  tail call void @lean_dec_ref_cold(ptr noundef nonnull %5) #5
  br label %lean_dec.exit24

lean_dec.exit24:                                  ; preds = %40, %39, %37, %lean_dec.exit25
  %41 = ptrtoint ptr %4 to i64
  %42 = and i64 %41, 1
  %.not35 = icmp eq i64 %42, 0
  br i1 %.not35, label %43, label %lean_dec.exit

43:                                               ; preds = %lean_dec.exit24
  %44 = load i32, ptr %4, align 4, !tbaa !8
  %45 = icmp sgt i32 %44, 1
  br i1 %45, label %46, label %48, !prof !11

46:                                               ; preds = %43
  %47 = add nsw i32 %44, -1
  store i32 %47, ptr %4, align 4, !tbaa !8
  br label %lean_dec.exit

48:                                               ; preds = %43
  %.not.i31 = icmp eq i32 %44, 0
  br i1 %.not.i31, label %lean_dec.exit, label %49

49:                                               ; preds = %48
  tail call void @lean_dec_ref_cold(ptr noundef nonnull %4) #5
  br label %lean_dec.exit

lean_dec.exit:                                    ; preds = %49, %48, %46, %lean_dec.exit24
  %50 = load ptr, ptr @l_UInt8_reduceBin____x40_Lean_Meta_Tactic_Simp_BuiltinSimprocs_UInt___hyg_7759____lambda__1___closed__1, align 8, !tbaa !4
  tail call void @lean_inc_heartbeat() #5
  %51 = tail call noalias ptr @mi_malloc_small(i64 noundef 24) #5
  %52 = icmp eq ptr %51, null
  br i1 %52, label %53, label %lean_alloc_ctor.exit

53:                                               ; preds = %lean_dec.exit
  tail call void @lean_internal_panic_out_of_memory() #6
  unreachable

lean_alloc_ctor.exit:                             ; preds = %lean_dec.exit
  %54 = getelementptr inbounds nuw i8, ptr %51, i64 4
  store i32 1, ptr %51, align 4, !tbaa !8
  store i32 131096, ptr %54, align 4
  %55 = getelementptr inbounds nuw i8, ptr %51, i64 8
  store ptr %50, ptr %55, align 8, !tbaa !4
  %56 = getelementptr inbounds nuw i8, ptr %51, i64 16
  store ptr %8, ptr %56, align 8, !tbaa !4
  br label %59

57:                                               ; preds = %9
  %58 = tail call ptr @l_UInt64_reduceMod___lambda__1(ptr noundef %0, ptr nonnull poison, ptr poison, ptr poison, ptr poison, ptr noundef %4, ptr noundef %5, ptr noundef %6, ptr noundef %7, ptr noundef %8)
  br label %59

59:                                               ; preds = %57, %lean_alloc_ctor.exit
  %.0 = phi ptr [ %51, %lean_alloc_ctor.exit ], [ %58, %57 ]
  ret ptr %.0
}